; Function Attrs: mustprogress uwtable
define dso_local void @_ZN19b3GpuGridBroadphase11createProxyERK9b3Vector3S2_iii(ptr noundef nonnull align 8 dereferenceable(592) %this, ptr nocapture noundef nonnull readonly align 16 dereferenceable(16) %aabbMin, ptr nocapture noundef nonnull readonly align 16 dereferenceable(16) %aabbMax, i32 noundef %userPtr, i32 %collisionFilterGroup, i32 %collisionFilterMask) unnamed_addr #6 align 2 {
entry:
  %aabb.sroa.0 = alloca [3 x float], align 16
  %aabb.sroa.3 = alloca [3 x float], align 16
  call void @llvm.memcpy.p0.p0.i64(ptr noundef nonnull align 16 dereferenceable(12) %aabb.sroa.0, ptr noundef nonnull align 16 dereferenceable(12) %aabbMin, i64 12, i1 false)
  call void @llvm.memcpy.p0.p0.i64(ptr noundef nonnull align 16 dereferenceable(12) %aabb.sroa.3, ptr noundef nonnull align 16 dereferenceable(12) %aabbMax, i64 12, i1 false)
  %m_allAabbsCPU1 = getelementptr inbounds i8, ptr %this, i64 88
  %m_size.i = getelementptr inbounds i8, ptr %this, i64 92
  %0 = load i32, ptr %m_size.i, align 4
  %m_size.i.i = getelementptr inbounds i8, ptr %this, i64 180
  %1 = load i32, ptr %m_size.i.i, align 4
  %m_capacity.i.i = getelementptr inbounds i8, ptr %this, i64 184
  %2 = load i32, ptr %m_capacity.i.i, align 8
  %cmp.i = icmp eq i32 %1, %2
  br i1 %cmp.i, label %if.then.i, label %_ZN20b3AlignedObjectArrayIiE9push_backERKi.exit

if.then.i:                                        ; preds = %entry
  %m_smallAabbsMappingCPU = getelementptr inbounds i8, ptr %this, i64 176
  %tobool.not.i.i = icmp eq i32 %1, 0
  %mul.i.i = shl nsw i32 %1, 1
  %cond.i.i = select i1 %tobool.not.i.i, i32 1, i32 %mul.i.i
  tail call void @_ZN20b3AlignedObjectArrayIiE7reserveEi(ptr noundef nonnull align 8 dereferenceable(25) %m_smallAabbsMappingCPU, i32 noundef %cond.i.i)
  %.pre.i = load i32, ptr %m_size.i.i, align 4
  br label %_ZN20b3AlignedObjectArrayIiE9push_backERKi.exit

_ZN20b3AlignedObjectArrayIiE9push_backERKi.exit:  ; preds = %entry, %if.then.i
  %3 = phi i32 [ %.pre.i, %if.then.i ], [ %1, %entry ]
  %m_data.i = getelementptr inbounds i8, ptr %this, i64 192
  %4 = load ptr, ptr %m_data.i, align 8
  %idxprom.i = sext i32 %3 to i64
  %arrayidx.i = getelementptr inbounds i32, ptr %4, i64 %idxprom.i
  store i32 %0, ptr %arrayidx.i, align 4
  %5 = load i32, ptr %m_size.i.i, align 4
  %inc.i = add nsw i32 %5, 1
  store i32 %inc.i, ptr %m_size.i.i, align 4
  %6 = load i32, ptr %m_size.i, align 4
  %m_capacity.i.i3 = getelementptr inbounds i8, ptr %this, i64 96
  %7 = load i32, ptr %m_capacity.i.i3, align 8
  %cmp.i4 = icmp eq i32 %6, %7
  br i1 %cmp.i4, label %if.then.i9, label %_ZN20b3AlignedObjectArrayI9b3SapAabbE9push_backERKS0_.exit

if.then.i9:                                       ; preds = %_ZN20b3AlignedObjectArrayIiE9push_backERKi.exit
  %tobool.not.i.i10 = icmp eq i32 %6, 0
  %mul.i.i11 = shl nsw i32 %6, 1
  %cond.i.i12 = select i1 %tobool.not.i.i10, i32 1, i32 %mul.i.i11
  tail call void @_ZN20b3AlignedObjectArrayI9b3SapAabbE7reserveEi(ptr noundef nonnull align 8 dereferenceable(25) %m_allAabbsCPU1, i32 noundef %cond.i.i12)
  %.pre.i13 = load i32, ptr %m_size.i, align 4
  br label %_ZN20b3AlignedObjectArrayI9b3SapAabbE9push_backERKS0_.exit

_ZN20b3AlignedObjectArrayI9b3SapAabbE9push_backERKS0_.exit: ; preds = %_ZN20b3AlignedObjectArrayIiE9push_backERKi.exit, %if.then.i9
  %8 = phi i32 [ %.pre.i13, %if.then.i9 ], [ %6, %_ZN20b3AlignedObjectArrayIiE9push_backERKi.exit ]
  %m_data.i5 = getelementptr inbounds i8, ptr %this, i64 104
  %9 = load ptr, ptr %m_data.i5, align 8
  %idxprom.i6 = sext i32 %8 to i64
  %arrayidx.i7 = getelementptr inbounds %struct.b3SapAabb, ptr %9, i64 %idxprom.i6
  call void @llvm.memcpy.p0.p0.i64(ptr noundef nonnull align 16 dereferenceable(12) %arrayidx.i7, ptr noundef nonnull align 16 dereferenceable(12) %aabb.sroa.0, i64 12, i1 false)
  %aabb.sroa.2.0.arrayidx.i7.sroa_idx = getelementptr inbounds i8, ptr %arrayidx.i7, i64 12
  store i32 %userPtr, ptr %aabb.sroa.2.0.arrayidx.i7.sroa_idx, align 4
  %aabb.sroa.3.0.arrayidx.i7.sroa_idx = getelementptr inbounds i8, ptr %arrayidx.i7, i64 16
  call void @llvm.memcpy.p0.p0.i64(ptr noundef nonnull align 16 dereferenceable(12) %aabb.sroa.3.0.arrayidx.i7.sroa_idx, ptr noundef nonnull align 16 dereferenceable(12) %aabb.sroa.3, i64 12, i1 false)
  %aabb.sroa.4.0.arrayidx.i7.sroa_idx = getelementptr inbounds i8, ptr %arrayidx.i7, i64 28
  store i32 %0, ptr %aabb.sroa.4.0.arrayidx.i7.sroa_idx, align 4
  %10 = load i32, ptr %m_size.i, align 4
  %inc.i8 = add nsw i32 %10, 1
  store i32 %inc.i8, ptr %m_size.i, align 4
  ret void
}